target datalayout = "e-m:e-p270:32:32-p271:32:32-p272:64:64-i64:64-i128:128-f80:128-n8:16:32:64-S128"
target triple = "x86_64-pc-linux-gnu"

%struct.alternate_object_cache = type { ptr, i64, i64 }

@the_repository = external global ptr, align 8
@.str.62 = private unnamed_addr constant [27 x i8] c"size_t overflow: %lu * %lu\00", align 1

; Function Attrs: inlinehint nounwind uwtable
define internal i64 @st_mult(i64 noundef %0, i64 noundef %1) #5 {
  %3 = alloca i64, align 8
  %4 = alloca i64, align 8
  store i64 %0, ptr %3, align 8, !tbaa !96
  store i64 %1, ptr %4, align 8, !tbaa !96
  %5 = load i64, ptr %3, align 8, !tbaa !96
  %6 = icmp ne i64 %5, 0
  br i1 %6, label %7, label %15

7:                                                ; preds = %2
  %8 = load i64, ptr %4, align 8, !tbaa !96
  %9 = load i64, ptr %3, align 8, !tbaa !96
  %10 = udiv i64 -1, %9
  %11 = icmp ugt i64 %8, %10
  br i1 %11, label %12, label %15

12:                                               ; preds = %7
  %13 = load i64, ptr %3, align 8, !tbaa !96
  %14 = load i64, ptr %4, align 8, !tbaa !96
  call void (ptr, ...) @die(ptr noundef @.str.62, i64 noundef %13, i64 noundef %14) #13
  unreachable

15:                                               ; preds = %7, %2
  %16 = load i64, ptr %3, align 8, !tbaa !96
  %17 = load i64, ptr %4, align 8, !tbaa !96
  %18 = mul i64 %16, %17
  ret i64 %18
}

; Function Attrs: nounwind uwtable
define internal void @cache_one_alternate(ptr noundef %0, ptr noundef %1) #0 {
  %3 = alloca ptr, align 8
  %4 = alloca ptr, align 8
  %5 = alloca ptr, align 8
  %6 = alloca ptr, align 8
  %7 = alloca i32, align 4
  store ptr %0, ptr %3, align 8, !tbaa !108
  store ptr %1, ptr %4, align 8, !tbaa !106
  call void @llvm.lifetime.start.p0(i64 8, ptr %5) #11
  %8 = load ptr, ptr %4, align 8, !tbaa !106
  store ptr %8, ptr %5, align 8, !tbaa !197
  call void @llvm.lifetime.start.p0(i64 8, ptr %6) #11
  %9 = load ptr, ptr @the_repository, align 8, !tbaa !36
  %10 = load ptr, ptr %3, align 8, !tbaa !108
  %11 = call ptr @parse_object(ptr noundef %9, ptr noundef %10)
  store ptr %11, ptr %6, align 8, !tbaa !137
  %12 = load ptr, ptr %6, align 8, !tbaa !137
  %13 = icmp ne ptr %12, null
  br i1 %13, label %14, label %20

14:                                               ; preds = %2
  %15 = load ptr, ptr %6, align 8, !tbaa !137
  %16 = load i32, ptr %15, align 4
  %17 = lshr i32 %16, 4
  %18 = and i32 %17, 2
  %19 = icmp ne i32 %18, 0
  br i1 %19, label %20, label %21

20:                                               ; preds = %14, %2
  store i32 1, ptr %7, align 4
  br label %91

21:                                               ; preds = %14
  %22 = load ptr, ptr %6, align 8, !tbaa !137
  %23 = load i32, ptr %22, align 4
  %24 = lshr i32 %23, 4
  %25 = or i32 %24, 2
  %26 = load i32, ptr %22, align 4
  %27 = and i32 %25, 268435455
  %28 = shl i32 %27, 4
  %29 = and i32 %26, 15
  %30 = or i32 %29, %28
  store i32 %30, ptr %22, align 4
  br label %31

31:                                               ; preds = %21
  %32 = load ptr, ptr %5, align 8, !tbaa !197
  %33 = getelementptr inbounds nuw %struct.alternate_object_cache, ptr %32, i32 0, i32 1
  %34 = load i64, ptr %33, align 8, !tbaa !157
  %35 = add i64 %34, 1
  %36 = load ptr, ptr %5, align 8, !tbaa !197
  %37 = getelementptr inbounds nuw %struct.alternate_object_cache, ptr %36, i32 0, i32 2
  %38 = load i64, ptr %37, align 8, !tbaa !199
  %39 = icmp ugt i64 %35, %38
  br i1 %39, label %40, label %79

40:                                               ; preds = %31
  %41 = load ptr, ptr %5, align 8, !tbaa !197
  %42 = getelementptr inbounds nuw %struct.alternate_object_cache, ptr %41, i32 0, i32 2
  %43 = load i64, ptr %42, align 8, !tbaa !199
  %44 = add i64 %43, 16
  %45 = mul i64 %44, 3
  %46 = udiv i64 %45, 2
  %47 = load ptr, ptr %5, align 8, !tbaa !197
  %48 = getelementptr inbounds nuw %struct.alternate_object_cache, ptr %47, i32 0, i32 1
  %49 = load i64, ptr %48, align 8, !tbaa !157
  %50 = add i64 %49, 1
  %51 = icmp ult i64 %46, %50
  br i1 %51, label %52, label %59

52:                                               ; preds = %40
  %53 = load ptr, ptr %5, align 8, !tbaa !197
  %54 = getelementptr inbounds nuw %struct.alternate_object_cache, ptr %53, i32 0, i32 1
  %55 = load i64, ptr %54, align 8, !tbaa !157
  %56 = add i64 %55, 1
  %57 = load ptr, ptr %5, align 8, !tbaa !197
  %58 = getelementptr inbounds nuw %struct.alternate_object_cache, ptr %57, i32 0, i32 2
  store i64 %56, ptr %58, align 8, !tbaa !199
  br label %68

59:                                               ; preds = %40
  %60 = load ptr, ptr %5, align 8, !tbaa !197
  %61 = getelementptr inbounds nuw %struct.alternate_object_cache, ptr %60, i32 0, i32 2
  %62 = load i64, ptr %61, align 8, !tbaa !199
  %63 = add i64 %62, 16
  %64 = mul i64 %63, 3
  %65 = udiv i64 %64, 2
  %66 = load ptr, ptr %5, align 8, !tbaa !197
  %67 = getelementptr inbounds nuw %struct.alternate_object_cache, ptr %66, i32 0, i32 2
  store i64 %65, ptr %67, align 8, !tbaa !199
  br label %68

68:                                               ; preds = %59, %52
  %69 = load ptr, ptr %5, align 8, !tbaa !197
  %70 = getelementptr inbounds nuw %struct.alternate_object_cache, ptr %69, i32 0, i32 0
  %71 = load ptr, ptr %70, align 8, !tbaa !160
  %72 = load ptr, ptr %5, align 8, !tbaa !197
  %73 = getelementptr inbounds nuw %struct.alternate_object_cache, ptr %72, i32 0, i32 2
  %74 = load i64, ptr %73, align 8, !tbaa !199
  %75 = call i64 @st_mult(i64 noundef 8, i64 noundef %74)
  %76 = call ptr @xrealloc(ptr noundef %71, i64 noundef %75)
  %77 = load ptr, ptr %5, align 8, !tbaa !197
  %78 = getelementptr inbounds nuw %struct.alternate_object_cache, ptr %77, i32 0, i32 0
  store ptr %76, ptr %78, align 8, !tbaa !160
  br label %79

79:                                               ; preds = %68, %31
  br label %80

80:                                               ; preds = %79
  br label %81

81:                                               ; preds = %80
  %82 = load ptr, ptr %6, align 8, !tbaa !137
  %83 = load ptr, ptr %5, align 8, !tbaa !197
  %84 = getelementptr inbounds nuw %struct.alternate_object_cache, ptr %83, i32 0, i32 0
  %85 = load ptr, ptr %84, align 8, !tbaa !160
  %86 = load ptr, ptr %5, align 8, !tbaa !197
  %87 = getelementptr inbounds nuw %struct.alternate_object_cache, ptr %86, i32 0, i32 1
  %88 = load i64, ptr %87, align 8, !tbaa !157
  %89 = add i64 %88, 1
  store i64 %89, ptr %87, align 8, !tbaa !157
  %90 = getelementptr inbounds nuw ptr, ptr %85, i64 %88
  store ptr %82, ptr %90, align 8, !tbaa !137
  store i32 0, ptr %7, align 4
  br label %91

91:                                               ; preds = %81, %20
  call void @llvm.lifetime.end.p0(i64 8, ptr %6) #11
  call void @llvm.lifetime.end.p0(i64 8, ptr %5) #11
  %92 = load i32, ptr %7, align 4
  switch i32 %92, label %94 [
    i32 0, label %93
    i32 1, label %93
  ]

93:                                               ; preds = %91, %91
  ret void

94:                                               ; preds = %91
  unreachable
}