; Function Attrs: nounwind uwtable
define internal void @cache_one_alternate(ptr noundef %0, ptr noundef captures(none) %1) #0 {
  %3 = load ptr, ptr @the_repository, align 8, !tbaa !17
  %4 = tail call ptr @parse_object(ptr noundef %3, ptr noundef %0) #20
  %.not = icmp eq ptr %4, null
  br i1 %.not, label %29, label %5

5:                                                ; preds = %2
  %6 = load i32, ptr %4, align 4
  %7 = and i32 %6, 32
  %.not22 = icmp eq i32 %7, 0
  br i1 %.not22, label %8, label %29

8:                                                ; preds = %5
  %9 = or disjoint i32 %6, 32
  store i32 %9, ptr %4, align 4
  %10 = getelementptr inbounds nuw i8, ptr %1, i64 8
  %11 = load i64, ptr %10, align 8, !tbaa !56
  %12 = add i64 %11, 1
  %13 = getelementptr inbounds nuw i8, ptr %1, i64 16
  %14 = load i64, ptr %13, align 8, !tbaa !184
  %15 = icmp ugt i64 %12, %14
  br i1 %15, label %16, label %._crit_edge

._crit_edge:                                      ; preds = %8
  %.pre = load ptr, ptr %1, align 8, !tbaa !59
  br label %25

16:                                               ; preds = %8
  %17 = mul i64 %14, 3
  %18 = add i64 %17, 48
  %19 = lshr i64 %18, 1
  %. = tail call i64 @llvm.umax.i64(i64 %19, i64 %12)
  store i64 %., ptr %13, align 8, !tbaa !184
  %20 = icmp ugt i64 %., 2305843009213693951
  br i1 %20, label %21, label %st_mult.exit

21:                                               ; preds = %16
  tail call void (ptr, ...) @die(ptr noundef nonnull @.str.62, i64 noundef 8, i64 noundef %.) #21
  unreachable

st_mult.exit:                                     ; preds = %16
  %22 = load ptr, ptr %1, align 8, !tbaa !59
  %23 = shl nuw i64 %., 3
  %24 = tail call ptr @xrealloc(ptr noundef %22, i64 noundef %23) #20
  store ptr %24, ptr %1, align 8, !tbaa !59
  %.pre23 = load i64, ptr %10, align 8, !tbaa !56
  %.pre24 = add i64 %.pre23, 1
  br label %25

25:                                               ; preds = %._crit_edge, %st_mult.exit
  %.pre-phi = phi i64 [ %12, %._crit_edge ], [ %.pre24, %st_mult.exit ]
  %26 = phi i64 [ %11, %._crit_edge ], [ %.pre23, %st_mult.exit ]
  %27 = phi ptr [ %.pre, %._crit_edge ], [ %24, %st_mult.exit ]
  store i64 %.pre-phi, ptr %10, align 8, !tbaa !56
  %28 = getelementptr inbounds nuw ptr, ptr %27, i64 %26
  store ptr %4, ptr %28, align 8, !tbaa !60
  br label %29

29:                                               ; preds = %2, %5, %25
  ret void
}